; Function Attrs: nounwind sspstrong uwtable
define internal i64 @path_each_entry(i64 noundef %0) #0 {
  %2 = alloca [1 x i64], align 8
  call void @llvm.lifetime.start.p0(i64 8, ptr nonnull %2) #7
  %3 = tail call i32 @rb_block_given_p() #7
  %.not = icmp eq i32 %3, 0
  br i1 %.not, label %4, label %8

4:                                                ; preds = %1
  %5 = tail call i64 @rb_frame_this_func() #7
  %6 = tail call i64 @rb_id2sym(i64 noundef %5) #7
  %7 = tail call i64 @rb_enumeratorize_with_size(i64 noundef %0, i64 noundef %6, i32 noundef 0, ptr noundef null, ptr noundef null) #7
  br label %24

8:                                                ; preds = %1
  %9 = load i64, ptr @id_at_path, align 8, !tbaa !6
  %10 = tail call i64 @rb_ivar_get(i64 noundef %0, i64 noundef %9) #7
  %11 = icmp eq i64 %10, 0
  %12 = and i64 %10, 7
  %13 = icmp ne i64 %12, 0
  %14 = or i1 %11, %13
  br i1 %14, label %rbimpl_RB_TYPE_P_fastpath.exit.thread.i, label %rbimpl_RB_TYPE_P_fastpath.exit.i

rbimpl_RB_TYPE_P_fastpath.exit.i:                 ; preds = %8
  %15 = inttoptr i64 %10 to ptr
  %16 = load i64, ptr %15, align 8, !tbaa !10
  %17 = and i64 %16, 31
  %18 = icmp eq i64 %17, 5
  br i1 %18, label %get_strpath.exit, label %rbimpl_RB_TYPE_P_fastpath.exit.thread.i

rbimpl_RB_TYPE_P_fastpath.exit.thread.i:          ; preds = %rbimpl_RB_TYPE_P_fastpath.exit.i, %8
  %19 = load i64, ptr @rb_eTypeError, align 8, !tbaa !6
  tail call void (i64, ptr, ...) @rb_raise(i64 noundef %19, ptr noundef nonnull @.str.91) #9
  unreachable

get_strpath.exit:                                 ; preds = %rbimpl_RB_TYPE_P_fastpath.exit.i
  store i64 %10, ptr %2, align 8, !tbaa !6
  %20 = load i64, ptr @rb_cDir, align 8, !tbaa !6
  %21 = load i64, ptr @id_foreach, align 8, !tbaa !6
  %22 = tail call i64 @rb_obj_class(i64 noundef %0) #7
  %23 = call i64 @rb_block_call(i64 noundef %20, i64 noundef %21, i32 noundef 1, ptr noundef nonnull %2, ptr noundef nonnull @each_entry_i, i64 noundef %22) #7
  br label %24

24:                                               ; preds = %get_strpath.exit, %4
  %.0 = phi i64 [ %23, %get_strpath.exit ], [ %7, %4 ]
  call void @llvm.lifetime.end.p0(i64 8, ptr nonnull %2) #7
  ret i64 %.0
}